target datalayout = "e-m:e-p270:32:32-p271:32:32-p272:64:64-i64:64-i128:128-f80:128-n8:16:32:64-S128"
target triple = "x86_64-pc-linux-gnu"

; Function Attrs: inlinehint mustprogress nounwind uwtable
define internal void @_ZN2cv19connectedcomponentsL7setRootIiEEvPT_S2_S2_(ptr noundef %0, i32 noundef %1, i32 noundef %2) #7 {
  %4 = alloca ptr, align 8
  %5 = alloca i32, align 4
  %6 = alloca i32, align 4
  %7 = alloca i32, align 4
  store ptr %0, ptr %4, align 8, !tbaa !108
  store i32 %1, ptr %5, align 4, !tbaa !10
  store i32 %2, ptr %6, align 4, !tbaa !10
  br label %8

8:                                                ; preds = %16, %3
  %9 = load ptr, ptr %4, align 8, !tbaa !108
  %10 = load i32, ptr %5, align 4, !tbaa !10
  %11 = sext i32 %10 to i64
  %12 = getelementptr inbounds i32, ptr %9, i64 %11
  %13 = load i32, ptr %12, align 4, !tbaa !10
  %14 = load i32, ptr %5, align 4, !tbaa !10
  %15 = icmp slt i32 %13, %14
  br i1 %15, label %16, label %28

16:                                               ; preds = %8
  call void @llvm.lifetime.start.p0(i64 4, ptr %7) #14
  %17 = load ptr, ptr %4, align 8, !tbaa !108
  %18 = load i32, ptr %5, align 4, !tbaa !10
  %19 = sext i32 %18 to i64
  %20 = getelementptr inbounds i32, ptr %17, i64 %19
  %21 = load i32, ptr %20, align 4, !tbaa !10
  store i32 %21, ptr %7, align 4, !tbaa !10
  %22 = load i32, ptr %6, align 4, !tbaa !10
  %23 = load ptr, ptr %4, align 8, !tbaa !108
  %24 = load i32, ptr %5, align 4, !tbaa !10
  %25 = sext i32 %24 to i64
  %26 = getelementptr inbounds i32, ptr %23, i64 %25
  store i32 %22, ptr %26, align 4, !tbaa !10
  %27 = load i32, ptr %7, align 4, !tbaa !10
  store i32 %27, ptr %5, align 4, !tbaa !10
  call void @llvm.lifetime.end.p0(i64 4, ptr %7) #14
  br label %8, !llvm.loop !222

28:                                               ; preds = %8
  %29 = load i32, ptr %6, align 4, !tbaa !10
  %30 = load ptr, ptr %4, align 8, !tbaa !108
  %31 = load i32, ptr %5, align 4, !tbaa !10
  %32 = sext i32 %31 to i64
  %33 = getelementptr inbounds i32, ptr %30, i64 %32
  store i32 %29, ptr %33, align 4, !tbaa !10
  ret void
}

; Function Attrs: inlinehint mustprogress nounwind uwtable
define internal noundef i32 @_ZN2cv19connectedcomponentsL8findRootIiEET_PKS2_S2_(ptr noundef %0, i32 noundef %1) #7 {
  %3 = alloca ptr, align 8
  %4 = alloca i32, align 4
  %5 = alloca i32, align 4
  store ptr %0, ptr %3, align 8, !tbaa !108
  store i32 %1, ptr %4, align 4, !tbaa !10
  call void @llvm.lifetime.start.p0(i64 4, ptr %5) #14
  %6 = load i32, ptr %4, align 4, !tbaa !10
  store i32 %6, ptr %5, align 4, !tbaa !10
  br label %7

7:                                                ; preds = %15, %2
  %8 = load ptr, ptr %3, align 8, !tbaa !108
  %9 = load i32, ptr %5, align 4, !tbaa !10
  %10 = sext i32 %9 to i64
  %11 = getelementptr inbounds i32, ptr %8, i64 %10
  %12 = load i32, ptr %11, align 4, !tbaa !10
  %13 = load i32, ptr %5, align 4, !tbaa !10
  %14 = icmp slt i32 %12, %13
  br i1 %14, label %15, label %21

15:                                               ; preds = %7
  %16 = load ptr, ptr %3, align 8, !tbaa !108
  %17 = load i32, ptr %5, align 4, !tbaa !10
  %18 = sext i32 %17 to i64
  %19 = getelementptr inbounds i32, ptr %16, i64 %18
  %20 = load i32, ptr %19, align 4, !tbaa !10
  store i32 %20, ptr %5, align 4, !tbaa !10
  br label %7, !llvm.loop !221

21:                                               ; preds = %7
  %22 = load i32, ptr %5, align 4, !tbaa !10
  call void @llvm.lifetime.end.p0(i64 4, ptr %5) #14
  ret i32 %22
}

; Function Attrs: inlinehint mustprogress uwtable
define internal noundef i32 @_ZN2cv19connectedcomponentsL9set_unionIiEET_PS2_S2_S2_(ptr noundef %0, i32 noundef %1, i32 noundef %2) #2 {
  %4 = alloca ptr, align 8
  %5 = alloca i32, align 4
  %6 = alloca i32, align 4
  %7 = alloca i32, align 4
  %8 = alloca i32, align 4
  store ptr %0, ptr %4, align 8, !tbaa !108
  store i32 %1, ptr %5, align 4, !tbaa !10
  store i32 %2, ptr %6, align 4, !tbaa !10
  call void @llvm.lifetime.start.p0(i64 4, ptr %7) #14
  %9 = load ptr, ptr %4, align 8, !tbaa !108
  %10 = load i32, ptr %5, align 4, !tbaa !10
  %11 = call noundef i32 @_ZN2cv19connectedcomponentsL8findRootIiEET_PKS2_S2_(ptr noundef %9, i32 noundef %10)
  store i32 %11, ptr %7, align 4, !tbaa !10
  %12 = load i32, ptr %5, align 4, !tbaa !10
  %13 = load i32, ptr %6, align 4, !tbaa !10
  %14 = icmp ne i32 %12, %13
  br i1 %14, label %15, label %28

15:                                               ; preds = %3
  call void @llvm.lifetime.start.p0(i64 4, ptr %8) #14
  %16 = load ptr, ptr %4, align 8, !tbaa !108
  %17 = load i32, ptr %6, align 4, !tbaa !10
  %18 = call noundef i32 @_ZN2cv19connectedcomponentsL8findRootIiEET_PKS2_S2_(ptr noundef %16, i32 noundef %17)
  store i32 %18, ptr %8, align 4, !tbaa !10
  %19 = load i32, ptr %7, align 4, !tbaa !10
  %20 = load i32, ptr %8, align 4, !tbaa !10
  %21 = icmp sgt i32 %19, %20
  br i1 %21, label %22, label %24

22:                                               ; preds = %15
  %23 = load i32, ptr %8, align 4, !tbaa !10
  store i32 %23, ptr %7, align 4, !tbaa !10
  br label %24

24:                                               ; preds = %22, %15
  %25 = load ptr, ptr %4, align 8, !tbaa !108
  %26 = load i32, ptr %6, align 4, !tbaa !10
  %27 = load i32, ptr %7, align 4, !tbaa !10
  call void @_ZN2cv19connectedcomponentsL7setRootIiEEvPT_S2_S2_(ptr noundef %25, i32 noundef %26, i32 noundef %27)
  call void @llvm.lifetime.end.p0(i64 4, ptr %8) #14
  br label %28

28:                                               ; preds = %24, %3
  %29 = load ptr, ptr %4, align 8, !tbaa !108
  %30 = load i32, ptr %5, align 4, !tbaa !10
  %31 = load i32, ptr %7, align 4, !tbaa !10
  call void @_ZN2cv19connectedcomponentsL7setRootIiEEvPT_S2_S2_(ptr noundef %29, i32 noundef %30, i32 noundef %31)
  %32 = load i32, ptr %7, align 4, !tbaa !10
  call void @llvm.lifetime.end.p0(i64 4, ptr %7) #14
  ret i32 %32
}