; Function Attrs: inlinehint mustprogress nofree norecurse nosync nounwind memory(argmem: readwrite) uwtable
define internal fastcc noundef i32 @_ZN2cv19connectedcomponentsL9set_unionIiEET_PS2_S2_S2_(ptr noundef captures(none) %0, i32 noundef %1, i32 noundef %2) unnamed_addr #8 {
  br label %4

4:                                                ; preds = %4, %3
  %.0.i = phi i32 [ %1, %3 ], [ %7, %4 ]
  %5 = sext i32 %.0.i to i64
  %6 = getelementptr inbounds i32, ptr %0, i64 %5
  %7 = load i32, ptr %6, align 4, !tbaa !16
  %8 = icmp slt i32 %7, %.0.i
  br i1 %8, label %4, label %_ZN2cv19connectedcomponentsL8findRootIiEET_PKS2_S2_.exit, !llvm.loop !66

_ZN2cv19connectedcomponentsL8findRootIiEET_PKS2_S2_.exit: ; preds = %4
  %.not = icmp eq i32 %1, %2
  br i1 %.not, label %23, label %.preheader

.preheader:                                       ; preds = %_ZN2cv19connectedcomponentsL8findRootIiEET_PKS2_S2_.exit, %.preheader
  %.0.i18 = phi i32 [ %11, %.preheader ], [ %2, %_ZN2cv19connectedcomponentsL8findRootIiEET_PKS2_S2_.exit ]
  %9 = sext i32 %.0.i18 to i64
  %10 = getelementptr inbounds i32, ptr %0, i64 %9
  %11 = load i32, ptr %10, align 4, !tbaa !16
  %12 = icmp slt i32 %11, %.0.i18
  br i1 %12, label %.preheader, label %_ZN2cv19connectedcomponentsL8findRootIiEET_PKS2_S2_.exit19, !llvm.loop !66

_ZN2cv19connectedcomponentsL8findRootIiEET_PKS2_S2_.exit19: ; preds = %.preheader
  %spec.select = tail call i32 @llvm.smin.i32(i32 %.0.i, i32 %.0.i18)
  %13 = sext i32 %2 to i64
  %14 = getelementptr inbounds i32, ptr %0, i64 %13
  %15 = load i32, ptr %14, align 4, !tbaa !16
  %16 = icmp slt i32 %15, %2
  br i1 %16, label %.lr.ph.i, label %_ZN2cv19connectedcomponentsL7setRootIiEEvPT_S2_S2_.exit

.lr.ph.i:                                         ; preds = %_ZN2cv19connectedcomponentsL8findRootIiEET_PKS2_S2_.exit19, %.lr.ph.i
  %17 = phi i32 [ %21, %.lr.ph.i ], [ %15, %_ZN2cv19connectedcomponentsL8findRootIiEET_PKS2_S2_.exit19 ]
  %18 = phi ptr [ %20, %.lr.ph.i ], [ %14, %_ZN2cv19connectedcomponentsL8findRootIiEET_PKS2_S2_.exit19 ]
  store i32 %spec.select, ptr %18, align 4, !tbaa !16
  %19 = sext i32 %17 to i64
  %20 = getelementptr inbounds i32, ptr %0, i64 %19
  %21 = load i32, ptr %20, align 4, !tbaa !16
  %22 = icmp slt i32 %21, %17
  br i1 %22, label %.lr.ph.i, label %_ZN2cv19connectedcomponentsL7setRootIiEEvPT_S2_S2_.exit, !llvm.loop !67

_ZN2cv19connectedcomponentsL7setRootIiEEvPT_S2_S2_.exit: ; preds = %.lr.ph.i, %_ZN2cv19connectedcomponentsL8findRootIiEET_PKS2_S2_.exit19
  %.lcssa.i = phi ptr [ %14, %_ZN2cv19connectedcomponentsL8findRootIiEET_PKS2_S2_.exit19 ], [ %20, %.lr.ph.i ]
  store i32 %spec.select, ptr %.lcssa.i, align 4, !tbaa !16
  br label %23

23:                                               ; preds = %_ZN2cv19connectedcomponentsL7setRootIiEEvPT_S2_S2_.exit, %_ZN2cv19connectedcomponentsL8findRootIiEET_PKS2_S2_.exit
  %.0 = phi i32 [ %spec.select, %_ZN2cv19connectedcomponentsL7setRootIiEEvPT_S2_S2_.exit ], [ %.0.i, %_ZN2cv19connectedcomponentsL8findRootIiEET_PKS2_S2_.exit ]
  %24 = sext i32 %1 to i64
  %25 = getelementptr inbounds i32, ptr %0, i64 %24
  %26 = load i32, ptr %25, align 4, !tbaa !16
  %27 = icmp slt i32 %26, %1
  br i1 %27, label %.lr.ph.i21, label %_ZN2cv19connectedcomponentsL7setRootIiEEvPT_S2_S2_.exit22

.lr.ph.i21:                                       ; preds = %23, %.lr.ph.i21
  %28 = phi i32 [ %32, %.lr.ph.i21 ], [ %26, %23 ]
  %29 = phi ptr [ %31, %.lr.ph.i21 ], [ %25, %23 ]
  store i32 %.0, ptr %29, align 4, !tbaa !16
  %30 = sext i32 %28 to i64
  %31 = getelementptr inbounds i32, ptr %0, i64 %30
  %32 = load i32, ptr %31, align 4, !tbaa !16
  %33 = icmp slt i32 %32, %28
  br i1 %33, label %.lr.ph.i21, label %_ZN2cv19connectedcomponentsL7setRootIiEEvPT_S2_S2_.exit22, !llvm.loop !67

_ZN2cv19connectedcomponentsL7setRootIiEEvPT_S2_S2_.exit22: ; preds = %.lr.ph.i21, %23
  %.lcssa.i20 = phi ptr [ %25, %23 ], [ %31, %.lr.ph.i21 ]
  store i32 %.0, ptr %.lcssa.i20, align 4, !tbaa !16
  ret i32 %.0
}